target datalayout = "e-m:e-p270:32:32-p271:32:32-p272:64:64-i64:64-i128:128-f80:128-n8:16:32:64-S128"
target triple = "x86_64-pc-linux-gnu"

; Function Attrs: nounwind uwtable
define void @_ZTvn24_n24_N5osgeo4proj9operation20PointMotionOperationD1Ev(ptr noundef %0) unnamed_addr #8 align 2 {
  %2 = alloca ptr, align 8
  store ptr %0, ptr %2, align 8, !tbaa !519
  %3 = load ptr, ptr %2, align 8
  %4 = getelementptr inbounds i8, ptr %3, i64 -24
  %5 = load ptr, ptr %4, align 8, !tbaa !10
  %6 = getelementptr inbounds i8, ptr %5, i64 -24
  %7 = load i64, ptr %6, align 8
  %8 = getelementptr inbounds i8, ptr %4, i64 %7
  tail call void @_ZN5osgeo4proj9operation20PointMotionOperationD1Ev(ptr noundef nonnull align 8 dereferenceable(16) %8) #18
  ret void
}