; Function Attrs: nounwind uwtable
define void @_ZTvn24_n24_N5osgeo4proj9operation20PointMotionOperationD1Ev(ptr noundef %0) unnamed_addr #8 align 2 {
  %2 = getelementptr inbounds i8, ptr %0, i64 -24
  %3 = load ptr, ptr %2, align 8, !tbaa !3
  %4 = getelementptr inbounds i8, ptr %3, i64 -24
  %5 = load i64, ptr %4, align 8
  %6 = getelementptr inbounds i8, ptr %2, i64 %5
  tail call void @_ZN5osgeo4proj9operation20PointMotionOperationD1Ev(ptr noundef nonnull align 8 dereferenceable(16) %6) #46
  ret void
}